target datalayout = "e-m:e-p270:32:32-p271:32:32-p272:64:64-i64:64-i128:128-f80:128-n8:16:32:64-S128"
target triple = "x86_64-pc-linux-gnu"

%struct.PgStat_EntryRef = type { ptr, ptr, i32, ptr, %struct.dlist_node }
%struct.dlist_node = type { ptr, ptr }
%struct.PgStatShared_Database = type { %struct.PgStatShared_Common, %struct.PgStat_StatDBEntry }
%struct.PgStatShared_Common = type { i32, %struct.LWLock }
%struct.LWLock = type { i16, %struct.pg_atomic_uint32, %struct.proclist_head }
%struct.pg_atomic_uint32 = type { i32 }
%struct.proclist_head = type { i32, i32 }
%struct.PgStat_StatDBEntry = type { i64, i64, i64, i64, i64, i64, i64, i64, i64, i64, i64, i64, i64, i64, i64, i64, i64, i64, i64, i64, i64, i64, i64, i64, i64, i64, i64, i64, i64, i64, i64, i64, i64 }

@pgstat_track_counts = external global i8, align 1

; Function Attrs: nounwind uwtable
define dso_local void @pgstat_report_checksum_failures_in_db(i32 noundef %0, i32 noundef %1) #0 {
  %3 = alloca i32, align 4
  %4 = alloca i32, align 4
  %5 = alloca ptr, align 8
  %6 = alloca ptr, align 8
  %7 = alloca i32, align 4
  store i32 %0, ptr %3, align 4
  store i32 %1, ptr %4, align 4
  call void @llvm.lifetime.start.p0(i64 8, ptr %5) #4
  call void @llvm.lifetime.start.p0(i64 8, ptr %6) #4
  %8 = load i8, ptr @pgstat_track_counts, align 1, !range !4, !noundef !5
  %9 = trunc i8 %8 to i1
  br i1 %9, label %11, label %10

10:                                               ; preds = %2
  store i32 1, ptr %7, align 4
  br label %29

11:                                               ; preds = %2
  %12 = load i32, ptr %3, align 4
  %13 = call ptr @pgstat_get_entry_ref_locked(i32 noundef 1, i32 noundef %12, i64 noundef 0, i1 noundef zeroext false)
  store ptr %13, ptr %5, align 8
  %14 = load ptr, ptr %5, align 8
  %15 = getelementptr inbounds nuw %struct.PgStat_EntryRef, ptr %14, i32 0, i32 1
  %16 = load ptr, ptr %15, align 8
  store ptr %16, ptr %6, align 8
  %17 = load i32, ptr %4, align 4
  %18 = sext i32 %17 to i64
  %19 = load ptr, ptr %6, align 8
  %20 = getelementptr inbounds nuw %struct.PgStatShared_Database, ptr %19, i32 0, i32 1
  %21 = getelementptr inbounds nuw %struct.PgStat_StatDBEntry, ptr %20, i32 0, i32 19
  %22 = load i64, ptr %21, align 8
  %23 = add i64 %22, %18
  store i64 %23, ptr %21, align 8
  %24 = call i64 @GetCurrentTimestamp()
  %25 = load ptr, ptr %6, align 8
  %26 = getelementptr inbounds nuw %struct.PgStatShared_Database, ptr %25, i32 0, i32 1
  %27 = getelementptr inbounds nuw %struct.PgStat_StatDBEntry, ptr %26, i32 0, i32 20
  store i64 %24, ptr %27, align 8
  %28 = load ptr, ptr %5, align 8
  call void @pgstat_unlock_entry(ptr noundef %28)
  store i32 0, ptr %7, align 4
  br label %29

29:                                               ; preds = %11, %10
  call void @llvm.lifetime.end.p0(i64 8, ptr %6) #4
  call void @llvm.lifetime.end.p0(i64 8, ptr %5) #4
  %30 = load i32, ptr %7, align 4
  switch i32 %30, label %32 [
    i32 0, label %31
    i32 1, label %31
  ]

31:                                               ; preds = %29, %29
  ret void

32:                                               ; preds = %29
  unreachable
}