; Function Attrs: nounwind uwtable
define dso_local void @pgstat_report_checksum_failures_in_db(i32 noundef %0, i32 noundef %1) local_unnamed_addr #0 {
  %3 = load i8, ptr @pgstat_track_counts, align 1, !range !4, !noundef !5
  %4 = trunc nuw i8 %3 to i1
  br i1 %4, label %5, label %15

5:                                                ; preds = %2
  %6 = tail call ptr @pgstat_get_entry_ref_locked(i32 noundef 1, i32 noundef %0, i64 noundef 0, i1 noundef zeroext false) #6
  %7 = getelementptr inbounds nuw i8, ptr %6, i64 8
  %8 = load ptr, ptr %7, align 8
  %9 = sext i32 %1 to i64
  %10 = getelementptr inbounds nuw i8, ptr %8, i64 176
  %11 = load i64, ptr %10, align 8
  %12 = add i64 %11, %9
  store i64 %12, ptr %10, align 8
  %13 = tail call i64 @GetCurrentTimestamp() #6
  %14 = getelementptr inbounds nuw i8, ptr %8, i64 184
  store i64 %13, ptr %14, align 8
  tail call void @pgstat_unlock_entry(ptr noundef %6) #6
  br label %15

15:                                               ; preds = %2, %5
  ret void
}